target datalayout = "e-m:e-p270:32:32-p271:32:32-p272:64:64-i64:64-i128:128-f80:128-n8:16:32:64-S128"
target triple = "x86_64-pc-linux-gnu"

; Function Attrs: mustprogress uwtable
define void @_ZN8nanobind6detail13slice_computeEP7_objectlRlS3_S3_Rm(ptr noundef %0, i64 noundef %1, ptr noundef nonnull align 8 dereferenceable(8) %2, ptr noundef nonnull align 8 dereferenceable(8) %3, ptr noundef nonnull align 8 dereferenceable(8) %4, ptr noundef nonnull align 8 dereferenceable(8) %5) #12 {
  %7 = alloca ptr, align 8
  %8 = alloca i64, align 8
  %9 = alloca ptr, align 8
  %10 = alloca ptr, align 8
  %11 = alloca ptr, align 8
  %12 = alloca ptr, align 8
  %13 = alloca i64, align 8
  store ptr %0, ptr %7, align 8
  store i64 %1, ptr %8, align 8
  store ptr %2, ptr %9, align 8
  store ptr %3, ptr %10, align 8
  store ptr %4, ptr %11, align 8
  store ptr %5, ptr %12, align 8
  %14 = load ptr, ptr %7, align 8
  %15 = load ptr, ptr %9, align 8
  %16 = load ptr, ptr %10, align 8
  %17 = load ptr, ptr %11, align 8
  %18 = call i32 @PySlice_Unpack(ptr noundef %14, ptr noundef %15, ptr noundef %16, ptr noundef %17)
  %19 = icmp slt i32 %18, 0
  br i1 %19, label %20, label %21

20:                                               ; preds = %6
  call void @_ZN8nanobind6detail18raise_python_errorEv() #21
  unreachable

21:                                               ; preds = %6
  call void @llvm.lifetime.start.p0(i64 8, ptr %13) #20
  %22 = load i64, ptr %8, align 8
  %23 = load ptr, ptr %9, align 8
  %24 = load ptr, ptr %10, align 8
  %25 = load ptr, ptr %11, align 8
  %26 = load i64, ptr %25, align 8
  %27 = call i64 @PySlice_AdjustIndices(i64 noundef %22, ptr noundef %23, ptr noundef %24, i64 noundef %26)
  store i64 %27, ptr %13, align 8
  %28 = load i64, ptr %13, align 8
  %29 = load ptr, ptr %12, align 8
  store i64 %28, ptr %29, align 8
  call void @llvm.lifetime.end.p0(i64 8, ptr %13) #20
  ret void
}