; Function Attrs: mustprogress uwtable
define void @_ZN8nanobind6detail13slice_computeEP7_objectlRlS3_S3_Rm(ptr noundef %0, i64 noundef %1, ptr noundef nonnull align 8 dereferenceable(8) %2, ptr noundef nonnull align 8 dereferenceable(8) %3, ptr noundef nonnull align 8 dereferenceable(8) %4, ptr noundef nonnull writeonly align 8 captures(none) dereferenceable(8) %5) local_unnamed_addr #15 {
  %7 = tail call i32 @PySlice_Unpack(ptr noundef %0, ptr noundef nonnull %2, ptr noundef nonnull %3, ptr noundef nonnull %4)
  %8 = icmp slt i32 %7, 0
  br i1 %8, label %9, label %10

9:                                                ; preds = %6
  tail call void @_ZN8nanobind6detail18raise_python_errorEv() #28
  unreachable

10:                                               ; preds = %6
  %11 = load i64, ptr %4, align 8
  %12 = tail call i64 @PySlice_AdjustIndices(i64 noundef %1, ptr noundef nonnull %2, ptr noundef nonnull %3, i64 noundef %11)
  store i64 %12, ptr %5, align 8
  ret void
}